target datalayout = "e-m:e-p270:32:32-p271:32:32-p272:64:64-i64:64-i128:128-f80:128-n8:16:32:64-S128"
target triple = "x86_64-unknown-linux-gnu"

%"class.std::function" = type { %"class.std::_Function_base", ptr }
%"class.std::_Function_base" = type { %"union.std::_Any_data", ptr }
%"union.std::_Any_data" = type { %"union.std::_Nocopy_types" }
%"union.std::_Nocopy_types" = type { { i64, i64 } }
%class.elim_unconstrained = type <{ %class.dependent_expr_simplifier, %class.expr_inverter, %class.vector.0, %"struct.elim_unconstrained::var_lt", %class.heap, %class.ref_vector, %class.ref_vector, %"struct.elim_unconstrained::stats", [4 x i8], %class.svector.4, i8, i8, [6 x i8] }>
%class.dependent_expr_simplifier = type { ptr, ptr, ptr, ptr }
%class.expr_inverter = type { %class.iexpr_inverter.base, %class.ptr_vector }
%class.iexpr_inverter.base = type <{ ptr, ptr, %"class.std::function", %class.ref, i8 }>
%class.ref = type { ptr }
%class.ptr_vector = type { %class.vector }
%class.vector = type { ptr }
%class.vector.0 = type { ptr }
%"struct.elim_unconstrained::var_lt" = type { ptr }
%class.heap = type { %"struct.elim_unconstrained::var_lt", %class.svector, %class.svector }
%class.svector = type { %class.vector.1 }
%class.vector.1 = type { ptr }
%class.ref_vector = type { %class.ref_vector_core }
%class.ref_vector_core = type { %class.ref_manager_wrapper, %class.ptr_vector.2 }
%class.ref_manager_wrapper = type { ptr }
%class.ptr_vector.2 = type { %class.vector.3 }
%class.vector.3 = type { ptr }
%"struct.elim_unconstrained::stats" = type { i32 }
%class.svector.4 = type { %class.vector.5 }
%class.vector.5 = type { ptr }
%"struct.elim_unconstrained::node" = type { i32, ptr, ptr, ptr, i8, %class.ptr_vector.2 }

; Function Attrs: mustprogress nounwind uwtable
define linkonce_odr hidden noundef nonnull align 8 dereferenceable(48) ptr @_ZNK6vectorIN18elim_unconstrained4nodeELb1EjEixEj(ptr noundef nonnull align 8 dereferenceable(8) %this, i32 noundef %idx) #5 comdat align 2 {
entry:
  %this.addr = alloca ptr, align 8
  %idx.addr = alloca i32, align 4
  store ptr %this, ptr %this.addr, align 8
  store i32 %idx, ptr %idx.addr, align 4
  %this1 = load ptr, ptr %this.addr, align 8
  %m_data = getelementptr inbounds %class.vector.0, ptr %this1, i32 0, i32 0
  %0 = load ptr, ptr %m_data, align 8
  %1 = load i32, ptr %idx.addr, align 4
  %idxprom = zext i32 %1 to i64
  %arrayidx = getelementptr inbounds %"struct.elim_unconstrained::node", ptr %0, i64 %idxprom
  ret ptr %arrayidx
}

; Function Attrs: mustprogress uwtable
define linkonce_odr hidden noundef nonnull align 8 dereferenceable(48) ptr @_ZNK18elim_unconstrained8get_nodeEj(ptr noundef nonnull align 8 dereferenceable(194) %this, i32 noundef %n) #4 comdat align 2 {
entry:
  %this.addr = alloca ptr, align 8
  %n.addr = alloca i32, align 4
  store ptr %this, ptr %this.addr, align 8
  store i32 %n, ptr %n.addr, align 4
  %this1 = load ptr, ptr %this.addr, align 8
  %m_nodes = getelementptr inbounds %class.elim_unconstrained, ptr %this1, i32 0, i32 2
  %0 = load i32, ptr %n.addr, align 4
  %call = call noundef nonnull align 8 dereferenceable(48) ptr @_ZNK6vectorIN18elim_unconstrained4nodeELb1EjEixEj(ptr noundef nonnull align 8 dereferenceable(8) %m_nodes, i32 noundef %0)
  ret ptr %call
}

; Function Attrs: mustprogress uwtable
define hidden noundef zeroext i1 @_ZNK18elim_unconstrained9is_var_ltEii(ptr noundef nonnull align 8 dereferenceable(194) %this, i32 noundef %v1, i32 noundef %v2) #4 align 2 {
entry:
  %this.addr = alloca ptr, align 8
  %v1.addr = alloca i32, align 4
  %v2.addr = alloca i32, align 4
  %n1 = alloca ptr, align 8
  %n2 = alloca ptr, align 8
  store ptr %this, ptr %this.addr, align 8
  store i32 %v1, ptr %v1.addr, align 4
  store i32 %v2, ptr %v2.addr, align 4
  %this1 = load ptr, ptr %this.addr, align 8
  %0 = load i32, ptr %v1.addr, align 4
  %call = call noundef nonnull align 8 dereferenceable(48) ptr @_ZNK18elim_unconstrained8get_nodeEj(ptr noundef nonnull align 8 dereferenceable(194) %this1, i32 noundef %0)
  store ptr %call, ptr %n1, align 8
  %1 = load i32, ptr %v2.addr, align 4
  %call2 = call noundef nonnull align 8 dereferenceable(48) ptr @_ZNK18elim_unconstrained8get_nodeEj(ptr noundef nonnull align 8 dereferenceable(194) %this1, i32 noundef %1)
  store ptr %call2, ptr %n2, align 8
  %2 = load ptr, ptr %n1, align 8
  %m_refcount = getelementptr inbounds %"struct.elim_unconstrained::node", ptr %2, i32 0, i32 0
  %3 = load i32, ptr %m_refcount, align 8
  %4 = load ptr, ptr %n2, align 8
  %m_refcount3 = getelementptr inbounds %"struct.elim_unconstrained::node", ptr %4, i32 0, i32 0
  %5 = load i32, ptr %m_refcount3, align 8
  %cmp = icmp ult i32 %3, %5
  ret i1 %cmp
}