; Function Attrs: mustprogress nofree norecurse nosync nounwind willreturn memory(read, inaccessiblemem: none) uwtable
define hidden noundef zeroext i1 @_ZNK18elim_unconstrained9is_var_ltEii(ptr nocapture noundef nonnull readonly align 8 dereferenceable(194) %this, i32 noundef %v1, i32 noundef %v2) local_unnamed_addr #5 align 2 {
entry:
  %m_nodes.i = getelementptr inbounds i8, ptr %this, i64 104
  %0 = load ptr, ptr %m_nodes.i, align 8
  %idxprom.i.i = zext i32 %v1 to i64
  %arrayidx.i.i = getelementptr inbounds %"struct.elim_unconstrained::node", ptr %0, i64 %idxprom.i.i
  %idxprom.i.i2 = zext i32 %v2 to i64
  %arrayidx.i.i3 = getelementptr inbounds %"struct.elim_unconstrained::node", ptr %0, i64 %idxprom.i.i2
  %1 = load i32, ptr %arrayidx.i.i, align 8
  %2 = load i32, ptr %arrayidx.i.i3, align 8
  %cmp = icmp ult i32 %1, %2
  ret i1 %cmp
}